; Function Attrs: mustprogress uwtable
define hidden noundef ptr @_ZN10duckdb_re29Prefilter7FromRE2EPKNS_3RE2E(ptr noundef readonly captures(address_is_null) %0) local_unnamed_addr #0 align 2 {
  %2 = icmp eq ptr %0, null
  br i1 %2, label %9, label %3

3:                                                ; preds = %1
  %4 = getelementptr inbounds nuw i8, ptr %0, i64 32
  %5 = load ptr, ptr %4, align 8, !tbaa !135
  %6 = icmp eq ptr %5, null
  br i1 %6, label %9, label %7

7:                                                ; preds = %3
  %8 = tail call noundef ptr @_ZN10duckdb_re29Prefilter10FromRegexpEPNS_6RegexpE(ptr noundef nonnull %5)
  br label %9

9:                                                ; preds = %7, %3, %1
  %.0 = phi ptr [ null, %1 ], [ %8, %7 ], [ null, %3 ]
  ret ptr %.0
}